target datalayout = "e-m:e-p270:32:32-p271:32:32-p272:64:64-i64:64-i128:128-f80:128-n8:16:32:64-S128"
target triple = "x86_64-unknown-linux-gnu"

%"class.std::function" = type { %"class.std::_Function_base", ptr }
%"class.std::_Function_base" = type { %"union.std::_Any_data", ptr }
%"union.std::_Any_data" = type { %"union.std::_Nocopy_types" }
%"union.std::_Nocopy_types" = type { { i64, i64 } }

; Function Attrs: mustprogress nounwind uwtable
define linkonce_odr noundef zeroext i1 @_ZNKSt14_Function_base8_M_emptyEv(ptr noundef nonnull align 8 dereferenceable(24) %this) #4 comdat align 2 {
entry:
  %this.addr = alloca ptr, align 8
  store ptr %this, ptr %this.addr, align 8, !tbaa !3
  %this1 = load ptr, ptr %this.addr, align 8
  %_M_manager = getelementptr inbounds nuw %"class.std::_Function_base", ptr %this1, i32 0, i32 1
  %0 = load ptr, ptr %_M_manager, align 8, !tbaa !76
  %tobool = icmp ne ptr %0, null
  %lnot = xor i1 %tobool, true
  ret i1 %lnot
}

; Function Attrs: mustprogress uwtable
define linkonce_odr noundef double @_ZNKSt8functionIFddEEclEd(ptr noundef nonnull align 8 dereferenceable(32) %this, double noundef %__args) #0 comdat align 2 {
entry:
  %this.addr = alloca ptr, align 8
  %__args.addr = alloca double, align 8
  store ptr %this, ptr %this.addr, align 8, !tbaa !3
  store double %__args, ptr %__args.addr, align 8, !tbaa !9
  %this1 = load ptr, ptr %this.addr, align 8
  %call = call noundef zeroext i1 @_ZNKSt14_Function_base8_M_emptyEv(ptr noundef nonnull align 8 dereferenceable(24) %this1)
  br i1 %call, label %if.then, label %if.end

if.then:                                          ; preds = %entry
  call void @_ZSt25__throw_bad_function_callv() #14
  unreachable

if.end:                                           ; preds = %entry
  %_M_invoker = getelementptr inbounds nuw %"class.std::function", ptr %this1, i32 0, i32 1
  %0 = load ptr, ptr %_M_invoker, align 8, !tbaa !25
  %_M_functor = getelementptr inbounds nuw %"class.std::_Function_base", ptr %this1, i32 0, i32 0
  %call2 = call noundef double %0(ptr noundef nonnull align 8 dereferenceable(16) %_M_functor, ptr noundef nonnull align 8 dereferenceable(8) %__args.addr)
  ret double %call2
}

; Function Attrs: mustprogress uwtable
define noundef double @_ZNK8QuantLib27DiscreteTrapezoidIntegrator9integrateERKSt8functionIFddEEdd(ptr noundef nonnull align 8 dereferenceable(40) %this, ptr noundef nonnull align 8 dereferenceable(32) %f, double noundef %a, double noundef %b) unnamed_addr #0 align 2 {
entry:
  %this.addr = alloca ptr, align 8
  %f.addr = alloca ptr, align 8
  %a.addr = alloca double, align 8
  %b.addr = alloca double, align 8
  %n = alloca i64, align 8
  %d = alloca double, align 8
  %sum = alloca double, align 8
  %i = alloca i64, align 8
  store ptr %this, ptr %this.addr, align 8, !tbaa !3
  store ptr %f, ptr %f.addr, align 8, !tbaa !3
  store double %a, ptr %a.addr, align 8, !tbaa !9
  store double %b, ptr %b.addr, align 8, !tbaa !9
  %this1 = load ptr, ptr %this.addr, align 8
  call void @llvm.lifetime.start.p0(i64 8, ptr %n) #13
  %call = call noundef i64 @_ZNK8QuantLib10Integrator14maxEvaluationsEv(ptr noundef nonnull align 8 dereferenceable(40) %this1)
  %sub = sub i64 %call, 1
  store i64 %sub, ptr %n, align 8, !tbaa !7
  call void @llvm.lifetime.start.p0(i64 8, ptr %d) #13
  %0 = load double, ptr %b.addr, align 8, !tbaa !9
  %1 = load double, ptr %a.addr, align 8, !tbaa !9
  %sub2 = fsub double %0, %1
  %2 = load i64, ptr %n, align 8, !tbaa !7
  %conv = uitofp i64 %2 to double
  %div = fdiv double %sub2, %conv
  store double %div, ptr %d, align 8, !tbaa !9
  call void @llvm.lifetime.start.p0(i64 8, ptr %sum) #13
  %3 = load ptr, ptr %f.addr, align 8, !tbaa !3
  %4 = load double, ptr %a.addr, align 8, !tbaa !9
  %call3 = call noundef double @_ZNKSt8functionIFddEEclEd(ptr noundef nonnull align 8 dereferenceable(32) %3, double noundef %4)
  %mul = fmul double %call3, 5.000000e-01
  store double %mul, ptr %sum, align 8, !tbaa !9
  call void @llvm.lifetime.start.p0(i64 8, ptr %i) #13
  store i64 0, ptr %i, align 8, !tbaa !7
  br label %for.cond

for.cond:                                         ; preds = %for.inc, %entry
  %5 = load i64, ptr %i, align 8, !tbaa !7
  %6 = load i64, ptr %n, align 8, !tbaa !7
  %sub4 = sub i64 %6, 1
  %cmp = icmp ult i64 %5, %sub4
  br i1 %cmp, label %for.body, label %for.cond.cleanup

for.cond.cleanup:                                 ; preds = %for.cond
  call void @llvm.lifetime.end.p0(i64 8, ptr %i) #13
  br label %for.end

for.body:                                         ; preds = %for.cond
  %7 = load double, ptr %d, align 8, !tbaa !9
  %8 = load double, ptr %a.addr, align 8, !tbaa !9
  %add = fadd double %8, %7
  store double %add, ptr %a.addr, align 8, !tbaa !9
  %9 = load ptr, ptr %f.addr, align 8, !tbaa !3
  %10 = load double, ptr %a.addr, align 8, !tbaa !9
  %call5 = call noundef double @_ZNKSt8functionIFddEEclEd(ptr noundef nonnull align 8 dereferenceable(32) %9, double noundef %10)
  %11 = load double, ptr %sum, align 8, !tbaa !9
  %add6 = fadd double %11, %call5
  store double %add6, ptr %sum, align 8, !tbaa !9
  br label %for.inc

for.inc:                                          ; preds = %for.body
  %12 = load i64, ptr %i, align 8, !tbaa !7
  %inc = add i64 %12, 1
  store i64 %inc, ptr %i, align 8, !tbaa !7
  br label %for.cond, !llvm.loop !24

for.end:                                          ; preds = %for.cond.cleanup
  %13 = load ptr, ptr %f.addr, align 8, !tbaa !3
  %14 = load double, ptr %b.addr, align 8, !tbaa !9
  %call7 = call noundef double @_ZNKSt8functionIFddEEclEd(ptr noundef nonnull align 8 dereferenceable(32) %13, double noundef %14)
  %15 = load double, ptr %sum, align 8, !tbaa !9
  %16 = call double @llvm.fmuladd.f64(double %call7, double 5.000000e-01, double %15)
  store double %16, ptr %sum, align 8, !tbaa !9
  %call9 = call noundef i64 @_ZNK8QuantLib10Integrator14maxEvaluationsEv(ptr noundef nonnull align 8 dereferenceable(40) %this1)
  call void @_ZNK8QuantLib10Integrator27increaseNumberOfEvaluationsEm(ptr noundef nonnull align 8 dereferenceable(40) %this1, i64 noundef %call9)
  %17 = load double, ptr %d, align 8, !tbaa !9
  %18 = load double, ptr %sum, align 8, !tbaa !9
  %mul10 = fmul double %17, %18
  call void @llvm.lifetime.end.p0(i64 8, ptr %sum) #13
  call void @llvm.lifetime.end.p0(i64 8, ptr %d) #13
  call void @llvm.lifetime.end.p0(i64 8, ptr %n) #13
  ret double %mul10
}