; Function Attrs: mustprogress uwtable
define noundef double @_ZNK8QuantLib27DiscreteTrapezoidIntegrator9integrateERKSt8functionIFddEEdd(ptr noundef nonnull align 8 dereferenceable(40) %this, ptr noundef nonnull align 8 dereferenceable(32) %f, double noundef %a, double noundef %b) unnamed_addr #0 align 2 {
entry:
  %__args.addr.i19 = alloca double, align 8
  %__args.addr.i12 = alloca double, align 8
  %__args.addr.i = alloca double, align 8
  %call = tail call noundef i64 @_ZNK8QuantLib10Integrator14maxEvaluationsEv(ptr noundef nonnull align 8 dereferenceable(40) %this)
  %sub = add i64 %call, -1
  %sub2 = fsub double %b, %a
  %conv = uitofp i64 %sub to double
  %div = fdiv double %sub2, %conv
  call void @llvm.lifetime.start.p0(i64 8, ptr nonnull %__args.addr.i)
  store double %a, ptr %__args.addr.i, align 8, !tbaa !16
  %_M_manager.i.i = getelementptr inbounds nuw i8, ptr %f, i64 16
  %0 = load ptr, ptr %_M_manager.i.i, align 8, !tbaa !32
  %tobool.not.i.i = icmp eq ptr %0, null
  br i1 %tobool.not.i.i, label %if.then.i, label %_ZNKSt8functionIFddEEclEd.exit

if.then.i:                                        ; preds = %entry
  tail call void @_ZSt25__throw_bad_function_callv() #16
  unreachable

_ZNKSt8functionIFddEEclEd.exit:                   ; preds = %entry
  %_M_invoker.i = getelementptr inbounds nuw i8, ptr %f, i64 24
  %1 = load ptr, ptr %_M_invoker.i, align 8, !tbaa !34
  %call2.i = call noundef double %1(ptr noundef nonnull align 8 dereferenceable(16) %f, ptr noundef nonnull align 8 dereferenceable(8) %__args.addr.i)
  call void @llvm.lifetime.end.p0(i64 8, ptr nonnull %__args.addr.i)
  %mul = fmul double %call2.i, 5.000000e-01
  %sub4 = add i64 %call, -2
  %cmp27.not = icmp eq i64 %sub4, 0
  br i1 %cmp27.not, label %for.cond.cleanup, label %for.body

for.cond.cleanup:                                 ; preds = %_ZNKSt8functionIFddEEclEd.exit25, %_ZNKSt8functionIFddEEclEd.exit
  %sum.0.lcssa = phi double [ %mul, %_ZNKSt8functionIFddEEclEd.exit ], [ %add6, %_ZNKSt8functionIFddEEclEd.exit25 ]
  call void @llvm.lifetime.start.p0(i64 8, ptr nonnull %__args.addr.i12)
  store double %b, ptr %__args.addr.i12, align 8, !tbaa !16
  %2 = load ptr, ptr %_M_manager.i.i, align 8, !tbaa !32
  %tobool.not.i.i14 = icmp eq ptr %2, null
  br i1 %tobool.not.i.i14, label %if.then.i17, label %_ZNKSt8functionIFddEEclEd.exit18

if.then.i17:                                      ; preds = %for.cond.cleanup
  call void @_ZSt25__throw_bad_function_callv() #16
  unreachable

_ZNKSt8functionIFddEEclEd.exit18:                 ; preds = %for.cond.cleanup
  %3 = load ptr, ptr %_M_invoker.i, align 8, !tbaa !34
  %call2.i16 = call noundef double %3(ptr noundef nonnull align 8 dereferenceable(16) %f, ptr noundef nonnull align 8 dereferenceable(8) %__args.addr.i12)
  call void @llvm.lifetime.end.p0(i64 8, ptr nonnull %__args.addr.i12)
  %4 = call double @llvm.fmuladd.f64(double %call2.i16, double 5.000000e-01, double %sum.0.lcssa)
  %call9 = call noundef i64 @_ZNK8QuantLib10Integrator14maxEvaluationsEv(ptr noundef nonnull align 8 dereferenceable(40) %this)
  call void @_ZNK8QuantLib10Integrator27increaseNumberOfEvaluationsEm(ptr noundef nonnull align 8 dereferenceable(40) %this, i64 noundef %call9)
  %mul10 = fmul double %div, %4
  ret double %mul10

for.body:                                         ; preds = %_ZNKSt8functionIFddEEclEd.exit, %_ZNKSt8functionIFddEEclEd.exit25
  %i.030 = phi i64 [ %inc, %_ZNKSt8functionIFddEEclEd.exit25 ], [ 0, %_ZNKSt8functionIFddEEclEd.exit ]
  %sum.029 = phi double [ %add6, %_ZNKSt8functionIFddEEclEd.exit25 ], [ %mul, %_ZNKSt8functionIFddEEclEd.exit ]
  %a.addr.028 = phi double [ %add, %_ZNKSt8functionIFddEEclEd.exit25 ], [ %a, %_ZNKSt8functionIFddEEclEd.exit ]
  %add = fadd double %div, %a.addr.028
  call void @llvm.lifetime.start.p0(i64 8, ptr nonnull %__args.addr.i19)
  store double %add, ptr %__args.addr.i19, align 8, !tbaa !16
  %5 = load ptr, ptr %_M_manager.i.i, align 8, !tbaa !32
  %tobool.not.i.i21 = icmp eq ptr %5, null
  br i1 %tobool.not.i.i21, label %if.then.i24, label %_ZNKSt8functionIFddEEclEd.exit25

if.then.i24:                                      ; preds = %for.body
  call void @_ZSt25__throw_bad_function_callv() #16
  unreachable

_ZNKSt8functionIFddEEclEd.exit25:                 ; preds = %for.body
  %6 = load ptr, ptr %_M_invoker.i, align 8, !tbaa !34
  %call2.i23 = call noundef double %6(ptr noundef nonnull align 8 dereferenceable(16) %f, ptr noundef nonnull align 8 dereferenceable(8) %__args.addr.i19)
  call void @llvm.lifetime.end.p0(i64 8, ptr nonnull %__args.addr.i19)
  %add6 = fadd double %sum.029, %call2.i23
  %inc = add nuw i64 %i.030, 1
  %exitcond.not = icmp eq i64 %inc, %sub4
  br i1 %exitcond.not, label %for.cond.cleanup, label %for.body, !llvm.loop !36
}